; Function Attrs: mustprogress nofree nounwind willreturn memory(write, argmem: read, inaccessiblemem: none) uwtable
define internal noundef i32 @custom_ext_1_srv_parse_cb(ptr readnone captures(none) %0, i32 noundef %1, ptr noundef readonly captures(none) %2, i64 noundef %3, ptr readnone captures(none) %4, ptr readnone captures(none) %5) #13 {
  %.not = icmp ne i32 %1, 1001
  %.not3 = icmp ne i64 %3, 3
  %7 = or i1 %.not, %.not3
  br i1 %7, label %8, label %9

8:                                                ; preds = %6
  store i1 true, ptr @custom_ext_error, align 4
  br label %9

9:                                                ; preds = %6, %8
  %bcmp = tail call i32 @bcmp(ptr %2, ptr nonnull @custom_ext_cli_string, i64 %3)
  %.not4 = icmp eq i32 %bcmp, 0
  br i1 %.not4, label %11, label %10

10:                                               ; preds = %9
  store i1 true, ptr @custom_ext_error, align 4
  br label %11

11:                                               ; preds = %10, %9
  ret i32 1
}